target datalayout = "e-m:e-p270:32:32-p271:32:32-p272:64:64-i64:64-i128:128-f80:128-n8:16:32:64-S128"
target triple = "x86_64-pc-linux-gnu"

%struct.redisServer = type { i32, i64, ptr, ptr, ptr, i32, i32, i32, i32, i32, ptr, ptr, ptr, ptr, ptr, i32, i32, i32, i32, i64, i32, i32, i32, i32, ptr, i32, i32, [41 x i8], i32, i64, i32, i32, i32, ptr, ptr, i32, i32, i64, ptr, ptr, ptr, ptr, [2 x i32], i32, i32, i32, i32, i32, i32, [16 x ptr], i32, ptr, ptr, i32, [8 x %struct.connListener], i32, %struct.connListener, ptr, ptr, ptr, ptr, ptr, ptr, ptr, ptr, ptr, ptr, i32, ptr, i32, ptr, [3 x %struct.pause_event], [256 x i8], ptr, i64, i32, i32, [128 x i32], i32, i32, i64, i32, i32, i32, i32, i32, i64, i64, i64, i64, i64, i64, i64, i64, i64, i64, double, i64, i64, i64, i64, i64, i64, i64, i64, i64, i64, i64, i64, i64, i64, i64, i64, i64, i64, i64, i64, i64, double, i64, i64, i64, i64, i64, ptr, i64, i64, i64, %struct.malloc_stats, i64, i64, i64, i64, i64, i64, i64, i64, i64, i64, i64, i64, double, [4 x i64], i64, i64, i64, i64, [128 x i64], [128 x i64], i64, i64, [7 x %struct.anon], i64, i64, i64, i64, i64, i64, [4 x %struct.durationStats], i32, i32, i32, i32, i32, i32, i32, i32, i32, i32, i32, i32, i64, i32, i32, i32, i32, i64, i64, i32, i32, i32, i32, i32, ptr, [3 x %struct.clientBufferLimitsConfig], i32, i32, i32, ptr, i32, i32, i32, i32, i32, i32, ptr, ptr, i32, i32, i64, i64, i64, i64, i64, i32, i32, ptr, i32, i32, i64, i64, i64, i64, i64, i32, i32, i64, i32, i32, i32, i32, i32, i32, i32, i32, ptr, i32, i64, i64, i64, i64, i32, ptr, i32, ptr, i32, i32, i32, i64, i64, i64, i64, i32, i32, i32, i32, i32, i32, ptr, i32, i32, ptr, i32, i32, i32, [2 x i32], i32, %struct.redisOpArray, i32, ptr, i32, ptr, i32, i32, i32, i32, i32, i32, i32, [41 x i8], [41 x i8], i64, i64, i64, i64, i32, i32, ptr, i64, i64, %struct.replDataBuf, i64, i64, i32, i32, i32, i32, i32, i32, i32, i32, i32, i64, ptr, i64, ptr, ptr, ptr, i32, i32, ptr, ptr, i32, i32, i32, i64, i64, i64, i64, ptr, ptr, i32, ptr, i64, i32, i32, i32, i64, i32, i32, i32, i32, ptr, i32, i32, [41 x i8], i64, i32, ptr, i32, i32, i64, i64, i32, i32, i32, i32, i32, i64, [3 x i32], i32, i32, i32, [10 x i32], ptr, ptr, i32, i64, ptr, ptr, i32, i32, i32, i32, i64, i64, i64, i64, i64, i64, i64, i64, i64, i64, i32, i32, i64, i64, i32, i64, i64, i64, i64, i64, ptr, ptr, i32, ptr, i32, i32, i32, i32, i64, i64, ptr, ptr, i32, i32, i32, i32, i32, ptr, ptr, ptr, i32, i32, i32, i32, i32, i32, i32, i64, i32, i32, i64, i32, i32, i32, i32, i32, i32, i32, i64, ptr, ptr, i64, ptr, i32, %struct.aclInfo, i32, i64, i32, i32, i32, %struct.redisTLSContextConfig, ptr, ptr, ptr, ptr, ptr, i64, i32, ptr, i32, i32, i32, i64, i32, ptr }
%struct.connListener = type { [16 x i32], i32, ptr, i32, i32, ptr, ptr }
%struct.pause_event = type { i32, i64 }
%struct.malloc_stats = type { i64, i64, i64, i64, i64, i64, i64, i64, i64, i64, i64 }
%struct.anon = type { i64, i64, [16 x i64], i32 }
%struct.durationStats = type { i64, i64, i64 }
%struct.clientBufferLimitsConfig = type { i64, i64, i64 }
%struct.redisOpArray = type { ptr, i32, i32 }
%struct.replDataBuf = type { ptr, i64, i64, i64, i64 }
%struct.aclInfo = type { i64, i64, i64, i64 }
%struct.redisTLSContextConfig = type { ptr, ptr, ptr, ptr, ptr, ptr, ptr, ptr, ptr, ptr, ptr, ptr, i32, i32, i32, i32 }

@ProcessingEventsWhileBlocked = dso_local global i32 0, align 4
@.str.1 = private unnamed_addr constant [13 x i8] c"networking.c\00", align 1
@server = external global %struct.redisServer, align 8
@.str.243 = private unnamed_addr constant [34 x i8] c"ProcessingEventsWhileBlocked >= 0\00", align 1

; Function Attrs: nounwind uwtable
define dso_local void @processEventsWhileBlocked() #0 {
  %1 = alloca i32, align 4
  %2 = alloca i64, align 8
  %3 = alloca i64, align 8
  %4 = alloca i64, align 8
  %5 = alloca i64, align 8
  %6 = alloca i32, align 4
  call void @llvm.lifetime.start.p0(i64 4, ptr %1) #16
  store i32 4, ptr %1, align 4, !tbaa !19
  call void @updateCachedTime(i32 noundef 0)
  call void @llvm.lifetime.start.p0(i64 8, ptr %2) #16
  %7 = load i64, ptr getelementptr inbounds nuw (%struct.redisServer, ptr @server, i32 0, i32 371), align 8, !tbaa !319
  store i64 %7, ptr %2, align 8, !tbaa !155
  %8 = load i64, ptr getelementptr inbounds nuw (%struct.redisServer, ptr @server, i32 0, i32 369), align 8, !tbaa !313
  store i64 %8, ptr getelementptr inbounds nuw (%struct.redisServer, ptr @server, i32 0, i32 371), align 8, !tbaa !319
  %9 = load i32, ptr @ProcessingEventsWhileBlocked, align 4, !tbaa !19
  %10 = add nsw i32 %9, 1
  store i32 %10, ptr @ProcessingEventsWhileBlocked, align 4, !tbaa !19
  br label %11

11:                                               ; preds = %32, %0
  %12 = load i32, ptr %1, align 4, !tbaa !19
  %13 = add nsw i32 %12, -1
  store i32 %13, ptr %1, align 4, !tbaa !19
  %14 = icmp ne i32 %12, 0
  br i1 %14, label %15, label %33

15:                                               ; preds = %11
  call void @llvm.lifetime.start.p0(i64 8, ptr %3) #16
  %16 = load i64, ptr getelementptr inbounds nuw (%struct.redisServer, ptr @server, i32 0, i32 80), align 8, !tbaa !320
  store i64 %16, ptr %3, align 8, !tbaa !155
  call void @llvm.lifetime.start.p0(i64 8, ptr %4) #16
  %17 = load ptr, ptr getelementptr inbounds nuw (%struct.redisServer, ptr @server, i32 0, i32 13), align 8, !tbaa !321
  %18 = call i32 @aeProcessEvents(ptr noundef %17, i32 noundef 29)
  %19 = sext i32 %18 to i64
  store i64 %19, ptr %4, align 8, !tbaa !155
  %20 = load i64, ptr %4, align 8, !tbaa !155
  %21 = load i64, ptr getelementptr inbounds nuw (%struct.redisServer, ptr @server, i32 0, i32 80), align 8, !tbaa !320
  %22 = add nsw i64 %21, %20
  store i64 %22, ptr getelementptr inbounds nuw (%struct.redisServer, ptr @server, i32 0, i32 80), align 8, !tbaa !320
  call void @llvm.lifetime.start.p0(i64 8, ptr %5) #16
  %23 = load i64, ptr getelementptr inbounds nuw (%struct.redisServer, ptr @server, i32 0, i32 80), align 8, !tbaa !320
  %24 = load i64, ptr %3, align 8, !tbaa !155
  %25 = sub nsw i64 %23, %24
  store i64 %25, ptr %5, align 8, !tbaa !155
  %26 = load i64, ptr %5, align 8, !tbaa !155
  %27 = icmp ne i64 %26, 0
  br i1 %27, label %29, label %28

28:                                               ; preds = %15
  store i32 3, ptr %6, align 4
  br label %30

29:                                               ; preds = %15
  store i32 0, ptr %6, align 4
  br label %30

30:                                               ; preds = %29, %28
  call void @llvm.lifetime.end.p0(i64 8, ptr %5) #16
  call void @llvm.lifetime.end.p0(i64 8, ptr %4) #16
  call void @llvm.lifetime.end.p0(i64 8, ptr %3) #16
  %31 = load i32, ptr %6, align 4
  switch i32 %31, label %49 [
    i32 0, label %32
    i32 3, label %33
  ]

32:                                               ; preds = %30
  br label %11, !llvm.loop !322

33:                                               ; preds = %30, %11
  call void @whileBlockedCron()
  %34 = load i32, ptr @ProcessingEventsWhileBlocked, align 4, !tbaa !19
  %35 = add nsw i32 %34, -1
  store i32 %35, ptr @ProcessingEventsWhileBlocked, align 4, !tbaa !19
  %36 = load i32, ptr @ProcessingEventsWhileBlocked, align 4, !tbaa !19
  %37 = icmp sge i32 %36, 0
  %38 = xor i1 %37, true
  %39 = xor i1 %38, true
  %40 = zext i1 %39 to i32
  %41 = sext i32 %40 to i64
  %42 = call i64 @llvm.expect.i64(i64 %41, i64 1)
  %43 = icmp ne i64 %42, 0
  br i1 %43, label %44, label %45

44:                                               ; preds = %33
  br label %47

45:                                               ; preds = %33
  call void @_serverAssert(ptr noundef @.str.243, ptr noundef @.str.1, i32 noundef 4492)
  call void @abort() #17
  unreachable

46:                                               ; No predecessors!
  br label %47

47:                                               ; preds = %46, %44
  %48 = load i64, ptr %2, align 8, !tbaa !155
  store i64 %48, ptr getelementptr inbounds nuw (%struct.redisServer, ptr @server, i32 0, i32 371), align 8, !tbaa !319
  call void @llvm.lifetime.end.p0(i64 8, ptr %2) #16
  call void @llvm.lifetime.end.p0(i64 4, ptr %1) #16
  ret void

49:                                               ; preds = %30
  unreachable
}