; Function Attrs: nounwind uwtable
define dso_local void @processEventsWhileBlocked() local_unnamed_addr #0 {
  tail call void @updateCachedTime(i32 noundef 0) #26
  %1 = load i64, ptr getelementptr inbounds nuw (i8, ptr @server, i64 7824), align 8, !tbaa !274
  %2 = load i64, ptr getelementptr inbounds nuw (i8, ptr @server, i64 7808), align 8, !tbaa !270
  store i64 %2, ptr getelementptr inbounds nuw (i8, ptr @server, i64 7824), align 8, !tbaa !274
  %3 = load i32, ptr @ProcessingEventsWhileBlocked, align 4, !tbaa !15
  %4 = add nsw i32 %3, 1
  store i32 %4, ptr @ProcessingEventsWhileBlocked, align 4, !tbaa !15
  br label %5

5:                                                ; preds = %6, %0
  %.06 = phi i32 [ 4, %0 ], [ %7, %6 ]
  %.not = icmp eq i32 %.06, 0
  br i1 %.not, label %14, label %6

6:                                                ; preds = %5
  %7 = add nsw i32 %.06, -1
  %8 = load i64, ptr getelementptr inbounds nuw (i8, ptr @server, i64 2392), align 8, !tbaa !275
  %9 = load ptr, ptr getelementptr inbounds nuw (i8, ptr @server, i64 88), align 8, !tbaa !276
  %10 = tail call i32 @aeProcessEvents(ptr noundef %9, i32 noundef 29) #26
  %11 = sext i32 %10 to i64
  %12 = load i64, ptr getelementptr inbounds nuw (i8, ptr @server, i64 2392), align 8, !tbaa !275
  %13 = add nsw i64 %12, %11
  store i64 %13, ptr getelementptr inbounds nuw (i8, ptr @server, i64 2392), align 8, !tbaa !275
  %.not7 = icmp eq i64 %13, %8
  br i1 %.not7, label %14, label %5

14:                                               ; preds = %6, %5
  tail call void @whileBlockedCron() #26
  %15 = load i32, ptr @ProcessingEventsWhileBlocked, align 4, !tbaa !15
  %16 = add nsw i32 %15, -1
  store i32 %16, ptr @ProcessingEventsWhileBlocked, align 4, !tbaa !15
  %17 = icmp sgt i32 %15, 0
  br i1 %17, label %19, label %18, !prof !5

18:                                               ; preds = %14
  tail call void @_serverAssert(ptr noundef nonnull @.str.243, ptr noundef nonnull @.str.1, i32 noundef 4492) #26
  tail call void @abort() #27
  unreachable

19:                                               ; preds = %14
  store i64 %1, ptr getelementptr inbounds nuw (i8, ptr @server, i64 7824), align 8, !tbaa !274
  ret void
}